target datalayout = "e-m:e-p270:32:32-p271:32:32-p272:64:64-i64:64-i128:128-f80:128-n8:16:32:64-S128"
target triple = "x86_64-pc-linux-gnu"

%"class.absl::base_internal::(anonymous namespace)::ArenaLock" = type { i8, i8, %struct.__sigset_t, ptr }
%struct.__sigset_t = type { [16 x i64] }

@.str = private unnamed_addr constant [137 x i8] c"generated/home/dtcxzyw/WorkSpace/Projects/compilers/llvm-opt-benchmark/bench/abseil-cpp/abseil-cpp/absl/base/internal/low_level_alloc.cc\00", align 1
@.str.1 = private unnamed_addr constant [20 x i8] c"Check %s failed: %s\00", align 1
@.str.19 = private unnamed_addr constant [6 x i8] c"left_\00", align 1
@.str.20 = private unnamed_addr constant [26 x i8] c"haven't left Arena region\00", align 1

; Function Attrs: mustprogress nounwind uwtable
define internal void @_ZN4absl13base_internal12_GLOBAL__N_19ArenaLockD2Ev(ptr noundef nonnull align 8 dereferenceable(144) %0) unnamed_addr #2 align 2 personality ptr @__gxx_personality_v0 {
  %2 = alloca ptr, align 8
  %3 = alloca ptr, align 8
  store ptr %0, ptr %2, align 8, !tbaa !46
  %4 = load ptr, ptr %2, align 8
  br label %5

5:                                                ; preds = %1
  %6 = getelementptr inbounds nuw %"class.absl::base_internal::(anonymous namespace)::ArenaLock", ptr %4, i32 0, i32 0
  %7 = load i8, ptr %6, align 8, !tbaa !48, !range !54, !noundef !55
  %8 = trunc i8 %7 to i1
  %9 = xor i1 %8, true
  %10 = zext i1 %9 to i64
  %11 = call i64 @llvm.expect.i64(i64 %10, i64 0)
  %12 = icmp ne i64 %11, 0
  br i1 %12, label %13, label %21

13:                                               ; preds = %5
  br label %14

14:                                               ; preds = %13
  call void @llvm.lifetime.start.p0(i64 8, ptr %3) #14
  store ptr getelementptr (i8, ptr @.str, i64 118), ptr %3, align 8, !tbaa !38
  invoke void (i32, ptr, i32, ptr, ...) @_ZN4absl16raw_log_internal6RawLogENS_11LogSeverityEPKciS3_z(i32 noundef 3, ptr noundef getelementptr (i8, ptr @.str, i64 118), i32 noundef 294, ptr noundef @.str.1, ptr noundef @.str.19, ptr noundef @.str.20)
          to label %15 unwind label %24

15:                                               ; preds = %14
  br label %16

16:                                               ; preds = %15
  unreachable

17:                                               ; No predecessors!
  br label %18

18:                                               ; preds = %17
  call void @llvm.lifetime.end.p0(i64 8, ptr %3) #14
  br label %19

19:                                               ; preds = %18
  br label %20

20:                                               ; preds = %19
  br label %21

21:                                               ; preds = %20, %5
  br label %22

22:                                               ; preds = %21
  br label %23

23:                                               ; preds = %22
  ret void

24:                                               ; preds = %14
  %25 = landingpad { ptr, i32 }
          catch ptr null
  %26 = extractvalue { ptr, i32 } %25, 0
  call void @__clang_call_terminate(ptr %26) #16
  unreachable
}