; Function Attrs: mustprogress nounwind uwtable
define internal fastcc void @_ZN4absl13base_internal12_GLOBAL__N_19ArenaLockD2Ev(i8 %.0.val) unnamed_addr #7 align 2 personality ptr @__gxx_personality_v0 {
  %1 = trunc nuw i8 %.0.val to i1
  br i1 %1, label %4, label %2, !prof !4

2:                                                ; preds = %0
  invoke void (i32, ptr, i32, ptr, ...) @_ZN4absl16raw_log_internal6RawLogENS_11LogSeverityEPKciS3_z(i32 noundef 3, ptr noundef nonnull getelementptr inbounds nuw (i8, ptr @.str, i64 118), i32 noundef 294, ptr noundef nonnull @.str.1, ptr noundef nonnull @.str.19, ptr noundef nonnull @.str.20)
          to label %3 unwind label %5

3:                                                ; preds = %2
  unreachable

4:                                                ; preds = %0
  ret void

5:                                                ; preds = %2
  %6 = landingpad { ptr, i32 }
          catch ptr null
  %7 = extractvalue { ptr, i32 } %6, 0
  tail call void @__clang_call_terminate(ptr %7) #15
  unreachable
}